target datalayout = "e-m:e-p270:32:32-p271:32:32-p272:64:64-i64:64-i128:128-f80:128-n8:16:32:64-S128"
target triple = "x86_64-pc-linux-gnu"

%class.MarkedFileReader = type { %class.FileReader, i64 }
%class.FileReader = type { ptr, ptr }
%"class.DwarfFile::MarkedDwarfFileReader" = type { %class.MarkedFileReader, i64, i64 }

; Function Attrs: mustprogress nounwind uwtable
define hidden noundef zeroext i1 @_ZN10FileReader4readEPvm(ptr noundef nonnull align 8 dereferenceable(16) %0, ptr noundef %1, i64 noundef %2) #1 align 2 {
  %4 = alloca ptr, align 8
  %5 = alloca ptr, align 8
  %6 = alloca i64, align 8
  store ptr %0, ptr %4, align 8
  store ptr %1, ptr %5, align 8
  store i64 %2, ptr %6, align 8
  %7 = load ptr, ptr %4, align 8
  %8 = load ptr, ptr %5, align 8
  %9 = load i64, ptr %6, align 8
  %10 = getelementptr inbounds %class.FileReader, ptr %7, i32 0, i32 1
  %11 = load ptr, ptr %10, align 8
  %12 = call i64 @fread(ptr noundef %8, i64 noundef %9, i64 noundef 1, ptr noundef %11)
  %13 = icmp eq i64 %12, 1
  ret i1 %13
}

; Function Attrs: mustprogress nounwind uwtable
define hidden noundef zeroext i1 @_ZN9DwarfFile21MarkedDwarfFileReader9read_byteEPv(ptr noundef nonnull align 8 dereferenceable(40) %0, ptr noundef %1) #1 align 2 {
  %3 = alloca ptr, align 8
  %4 = alloca ptr, align 8
  store ptr %0, ptr %3, align 8
  store ptr %1, ptr %4, align 8
  %5 = load ptr, ptr %3, align 8
  %6 = getelementptr inbounds %"class.DwarfFile::MarkedDwarfFileReader", ptr %5, i32 0, i32 1
  %7 = load i64, ptr %6, align 8
  %8 = add nsw i64 %7, 1
  store i64 %8, ptr %6, align 8
  %9 = load ptr, ptr %4, align 8
  %10 = call noundef zeroext i1 @_ZN10FileReader4readEPvm(ptr noundef nonnull align 8 dereferenceable(16) %5, ptr noundef %9, i64 noundef 1)
  ret i1 %10
}

; Function Attrs: mustprogress nounwind uwtable
define hidden noundef zeroext i1 @_ZNK9DwarfFile21MarkedDwarfFileReader14has_bytes_leftEv(ptr noundef nonnull align 8 dereferenceable(40) %0) #1 align 2 {
  %2 = alloca i1, align 1
  %3 = alloca ptr, align 8
  store ptr %0, ptr %3, align 8
  %4 = load ptr, ptr %3, align 8
  %5 = getelementptr inbounds %"class.DwarfFile::MarkedDwarfFileReader", ptr %4, i32 0, i32 2
  %6 = load i64, ptr %5, align 8
  %7 = icmp eq i64 %6, -1
  br i1 %7, label %8, label %9

8:                                                ; preds = %1
  store i1 false, ptr %2, align 1
  br label %15

9:                                                ; preds = %1
  %10 = getelementptr inbounds %"class.DwarfFile::MarkedDwarfFileReader", ptr %4, i32 0, i32 1
  %11 = load i64, ptr %10, align 8
  %12 = getelementptr inbounds %"class.DwarfFile::MarkedDwarfFileReader", ptr %4, i32 0, i32 2
  %13 = load i64, ptr %12, align 8
  %14 = icmp slt i64 %11, %13
  store i1 %14, ptr %2, align 1
  br label %15

15:                                               ; preds = %9, %8
  %16 = load i1, ptr %2, align 1
  ret i1 %16
}

; Function Attrs: mustprogress nounwind uwtable
define hidden noundef zeroext i1 @_ZN9DwarfFile21MarkedDwarfFileReader18read_non_null_charEPc(ptr noundef nonnull align 8 dereferenceable(40) %0, ptr noundef %1) #1 align 2 {
  %3 = alloca i1, align 1
  %4 = alloca ptr, align 8
  %5 = alloca ptr, align 8
  store ptr %0, ptr %4, align 8
  store ptr %1, ptr %5, align 8
  %6 = load ptr, ptr %4, align 8
  %7 = load ptr, ptr %5, align 8
  %8 = call noundef zeroext i1 @_ZN9DwarfFile21MarkedDwarfFileReader9read_byteEPv(ptr noundef nonnull align 8 dereferenceable(40) %6, ptr noundef %7)
  br i1 %8, label %10, label %9

9:                                                ; preds = %2
  store i1 false, ptr %3, align 1
  br label %15

10:                                               ; preds = %2
  %11 = load ptr, ptr %5, align 8
  %12 = load i8, ptr %11, align 1
  %13 = sext i8 %12 to i32
  %14 = icmp ne i32 %13, 0
  store i1 %14, ptr %3, align 1
  br label %15

15:                                               ; preds = %10, %9
  %16 = load i1, ptr %3, align 1
  ret i1 %16
}

; Function Attrs: mustprogress nounwind uwtable
define hidden noundef zeroext i1 @_ZN9DwarfFile21MarkedDwarfFileReader11read_stringEPcm(ptr noundef nonnull align 8 dereferenceable(40) %0, ptr noundef %1, i64 noundef %2) #1 align 2 {
  %4 = alloca i1, align 1
  %5 = alloca ptr, align 8
  %6 = alloca ptr, align 8
  %7 = alloca i64, align 8
  %8 = alloca i8, align 1
  %9 = alloca i8, align 1
  %10 = alloca i64, align 8
  %11 = alloca i8, align 1
  store ptr %0, ptr %5, align 8
  store ptr %1, ptr %6, align 8
  store i64 %2, ptr %7, align 8
  %12 = load ptr, ptr %5, align 8
  %13 = call noundef zeroext i1 @_ZN9DwarfFile21MarkedDwarfFileReader18read_non_null_charEPc(ptr noundef nonnull align 8 dereferenceable(40) %12, ptr noundef %8)
  br i1 %13, label %15, label %14

14:                                               ; preds = %3
  store i1 false, ptr %4, align 1
  br label %63

15:                                               ; preds = %3
  %16 = load ptr, ptr %6, align 8
  %17 = icmp ne ptr %16, null
  br i1 %17, label %18, label %26

18:                                               ; preds = %15
  %19 = load i64, ptr %7, align 8
  %20 = icmp ult i64 %19, 2
  br i1 %20, label %21, label %22

21:                                               ; preds = %18
  store i1 false, ptr %4, align 1
  br label %63

22:                                               ; preds = %18
  %23 = load i8, ptr %8, align 1
  %24 = load ptr, ptr %6, align 8
  %25 = getelementptr inbounds i8, ptr %24, i64 0
  store i8 %23, ptr %25, align 1
  br label %26

26:                                               ; preds = %22, %15
  store i64 1, ptr %10, align 8
  store i8 0, ptr %11, align 1
  br label %27

27:                                               ; preds = %61, %26
  %28 = call noundef zeroext i1 @_ZNK9DwarfFile21MarkedDwarfFileReader14has_bytes_leftEv(ptr noundef nonnull align 8 dereferenceable(40) %12)
  br i1 %28, label %29, label %62

29:                                               ; preds = %27
  %30 = call noundef zeroext i1 @_ZN9DwarfFile21MarkedDwarfFileReader9read_byteEPv(ptr noundef nonnull align 8 dereferenceable(40) %12, ptr noundef %9)
  br i1 %30, label %32, label %31

31:                                               ; preds = %29
  store i1 false, ptr %4, align 1
  br label %63

32:                                               ; preds = %29
  %33 = load ptr, ptr %6, align 8
  %34 = icmp ne ptr %33, null
  br i1 %34, label %35, label %48

35:                                               ; preds = %32
  %36 = load i64, ptr %10, align 8
  %37 = load i64, ptr %7, align 8
  %38 = icmp uge i64 %36, %37
  br i1 %38, label %39, label %40

39:                                               ; preds = %35
  store i8 1, ptr %11, align 1
  br label %45

40:                                               ; preds = %35
  %41 = load i8, ptr %9, align 1
  %42 = load ptr, ptr %6, align 8
  %43 = load i64, ptr %10, align 8
  %44 = getelementptr inbounds i8, ptr %42, i64 %43
  store i8 %41, ptr %44, align 1
  br label %45

45:                                               ; preds = %40, %39
  %46 = load i64, ptr %10, align 8
  %47 = add i64 %46, 1
  store i64 %47, ptr %10, align 8
  br label %48

48:                                               ; preds = %45, %32
  %49 = load i8, ptr %9, align 1
  %50 = zext i8 %49 to i32
  %51 = icmp eq i32 %50, 0
  br i1 %51, label %52, label %61

52:                                               ; preds = %48
  %53 = load i8, ptr %11, align 1
  %54 = trunc i8 %53 to i1
  br i1 %54, label %55, label %60

55:                                               ; preds = %52
  %56 = load ptr, ptr %6, align 8
  %57 = load i64, ptr %7, align 8
  %58 = sub i64 %57, 1
  %59 = getelementptr inbounds i8, ptr %56, i64 %58
  store i8 0, ptr %59, align 1
  br label %60

60:                                               ; preds = %55, %52
  store i1 true, ptr %4, align 1
  br label %63

61:                                               ; preds = %48
  br label %27, !llvm.loop !17

62:                                               ; preds = %27
  store i1 false, ptr %4, align 1
  br label %63

63:                                               ; preds = %62, %60, %31, %21, %14
  %64 = load i1, ptr %4, align 1
  ret i1 %64
}