; Function Attrs: mustprogress nofree nounwind uwtable
define hidden noundef zeroext i1 @_ZN9DwarfFile21MarkedDwarfFileReader11read_stringEPcm(ptr nocapture noundef nonnull align 8 dereferenceable(40) %0, ptr noundef writeonly %1, i64 noundef %2) local_unnamed_addr #3 align 2 {
  %4 = alloca i8, align 1
  %5 = alloca i8, align 1
  %6 = getelementptr inbounds i8, ptr %0, i64 24
  %7 = load i64, ptr %6, align 8
  %8 = add nsw i64 %7, 1
  store i64 %8, ptr %6, align 8
  %9 = getelementptr inbounds i8, ptr %0, i64 8
  %10 = load ptr, ptr %9, align 8
  %11 = call i64 @fread(ptr noundef nonnull %4, i64 noundef 1, i64 noundef 1, ptr noundef %10)
  %12 = icmp eq i64 %11, 1
  %13 = load i8, ptr %4, align 1
  %14 = icmp ne i8 %13, 0
  %or.cond = select i1 %12, i1 %14, i1 false
  br i1 %or.cond, label %15, label %_ZN9DwarfFile21MarkedDwarfFileReader18read_non_null_charEPc.exit.thread

15:                                               ; preds = %3
  %.not = icmp eq ptr %1, null
  br i1 %.not, label %.split.us.preheader, label %16

16:                                               ; preds = %15
  %17 = icmp ult i64 %2, 2
  br i1 %17, label %_ZN9DwarfFile21MarkedDwarfFileReader18read_non_null_charEPc.exit.thread, label %.split.preheader

.split.preheader:                                 ; preds = %16
  store i8 %13, ptr %1, align 1
  %18 = getelementptr inbounds i8, ptr %0, i64 32
  br label %.split.outer

.split.outer:                                     ; preds = %.thread25, %.split.preheader
  %.013.ph = phi i64 [ %46, %.thread25 ], [ 1, %.split.preheader ]
  %.0.ph = phi i1 [ true, %.thread25 ], [ false, %.split.preheader ]
  br label %.split

.split.us.preheader:                              ; preds = %15
  %19 = getelementptr inbounds i8, ptr %0, i64 32
  br label %.split.us

.split.us:                                        ; preds = %.split.us.preheader, %29
  %20 = load i64, ptr %19, align 8
  %21 = icmp ne i64 %20, -1
  %22 = load i64, ptr %6, align 8
  %23 = icmp slt i64 %22, %20
  %.0.i19.us = select i1 %21, i1 %23, i1 false
  br i1 %.0.i19.us, label %24, label %_ZN9DwarfFile21MarkedDwarfFileReader18read_non_null_charEPc.exit.thread

24:                                               ; preds = %.split.us
  %25 = add nsw i64 %22, 1
  store i64 %25, ptr %6, align 8
  %26 = load ptr, ptr %9, align 8
  %27 = call i64 @fread(ptr noundef nonnull %5, i64 noundef 1, i64 noundef 1, ptr noundef %26)
  %28 = icmp eq i64 %27, 1
  br i1 %28, label %29, label %_ZN9DwarfFile21MarkedDwarfFileReader18read_non_null_charEPc.exit.thread

29:                                               ; preds = %24
  %30 = load i8, ptr %5, align 1
  %31 = icmp eq i8 %30, 0
  br i1 %31, label %_ZN9DwarfFile21MarkedDwarfFileReader18read_non_null_charEPc.exit.thread, label %.split.us, !llvm.loop !18

.split:                                           ; preds = %.split.outer, %42
  %.013 = phi i64 [ %44, %42 ], [ %.013.ph, %.split.outer ]
  %32 = load i64, ptr %18, align 8
  %33 = icmp ne i64 %32, -1
  %34 = load i64, ptr %6, align 8
  %35 = icmp slt i64 %34, %32
  %.0.i19 = select i1 %33, i1 %35, i1 false
  br i1 %.0.i19, label %36, label %_ZN9DwarfFile21MarkedDwarfFileReader18read_non_null_charEPc.exit.thread

36:                                               ; preds = %.split
  %37 = add nsw i64 %34, 1
  store i64 %37, ptr %6, align 8
  %38 = load ptr, ptr %9, align 8
  %39 = call i64 @fread(ptr noundef nonnull %5, i64 noundef 1, i64 noundef 1, ptr noundef %38)
  %40 = icmp eq i64 %39, 1
  br i1 %40, label %41, label %_ZN9DwarfFile21MarkedDwarfFileReader18read_non_null_charEPc.exit.thread

41:                                               ; preds = %36
  %.not18 = icmp ult i64 %.013, %2
  %.pre = load i8, ptr %5, align 1
  br i1 %.not18, label %42, label %.thread25

42:                                               ; preds = %41
  %43 = getelementptr inbounds i8, ptr %1, i64 %.013
  store i8 %.pre, ptr %43, align 1
  %44 = add nuw i64 %.013, 1
  %45 = icmp eq i8 %.pre, 0
  br i1 %45, label %.split23.us, label %.split, !llvm.loop !18

.thread25:                                        ; preds = %41
  %46 = add i64 %.013, 1
  %47 = icmp eq i8 %.pre, 0
  br i1 %47, label %.split23.us.thread, label %.split.outer, !llvm.loop !18

.split23.us:                                      ; preds = %42
  br i1 %.0.ph, label %.split23.us.thread, label %_ZN9DwarfFile21MarkedDwarfFileReader18read_non_null_charEPc.exit.thread

.split23.us.thread:                               ; preds = %.thread25, %.split23.us
  %48 = getelementptr i8, ptr %1, i64 %2
  %49 = getelementptr i8, ptr %48, i64 -1
  store i8 0, ptr %49, align 1
  br label %_ZN9DwarfFile21MarkedDwarfFileReader18read_non_null_charEPc.exit.thread

_ZN9DwarfFile21MarkedDwarfFileReader18read_non_null_charEPc.exit.thread: ; preds = %36, %.split, %29, %24, %.split.us, %3, %.split23.us, %.split23.us.thread, %16
  %.015 = phi i1 [ false, %16 ], [ true, %.split23.us.thread ], [ true, %.split23.us ], [ false, %3 ], [ false, %.split.us ], [ false, %24 ], [ true, %29 ], [ false, %.split ], [ false, %36 ]
  ret i1 %.015
}